; Function Attrs: nounwind uwtable
define dso_local void @Curl_ssl_delsessionid(ptr noundef readonly captures(none) %0, ptr noundef readnone %1) local_unnamed_addr #2 {
  %3 = getelementptr inbounds nuw i8, ptr %0, i64 1656
  %4 = load i64, ptr %3, align 8
  %.not = icmp eq i64 %4, 0
  br i1 %.not, label %.loopexit, label %.lr.ph

.lr.ph:                                           ; preds = %2
  %5 = getelementptr inbounds nuw i8, ptr %0, i64 3200
  %6 = load ptr, ptr %5, align 8
  br label %9

7:                                                ; preds = %9
  %8 = add nuw i64 %.07, 1
  %exitcond.not = icmp eq i64 %8, %4
  br i1 %exitcond.not, label %.loopexit, label %9, !llvm.loop !8

9:                                                ; preds = %.lr.ph, %7
  %.07 = phi i64 [ 0, %.lr.ph ], [ %8, %7 ]
  %10 = getelementptr inbounds %struct.Curl_ssl_session, ptr %6, i64 %.07
  %11 = getelementptr inbounds nuw i8, ptr %10, i64 24
  %12 = load ptr, ptr %11, align 8
  %13 = icmp eq ptr %12, %1
  br i1 %13, label %14, label %7

14:                                               ; preds = %9
  tail call void @Curl_ssl_kill_session(ptr noundef nonnull %10)
  br label %.loopexit

.loopexit:                                        ; preds = %7, %2, %14
  ret void
}